target datalayout = "e-m:e-p270:32:32-p271:32:32-p272:64:64-i64:64-i128:128-f80:128-n8:16:32:64-S128"
target triple = "x86_64-pc-linux-gnu"

%"class.std::__shared_count" = type { ptr }
%"class.llvm::SmallVectorBase" = type { ptr, i32, i32 }
%"class.llvm::StringRef" = type { ptr, i64 }
%"class.llvm::SmallVectorImpl.39" = type { %"class.llvm::SmallVectorTemplateBase.40" }
%"class.llvm::SmallVectorTemplateBase.40" = type { %"class.llvm::SmallVectorTemplateCommon.41" }
%"class.llvm::SmallVectorTemplateCommon.41" = type { %"class.llvm::SmallVectorBase" }
%"struct.clang::format::FormatToken" = type <{ %"class.clang::Token", %"class.llvm::StringRef", %"class.std::shared_ptr.176", %"class.clang::SourceRange", i8, i16, i8, i32, i32, i32, i32, i32, i32, i32, i32, i32, i16, [2 x i8], i32, i32, i32, i32, i32, i32, i32, i32, i32, i32, [4 x i8], %"class.llvm::SmallVector.179", i32, i32, ptr, ptr, ptr, ptr, i8, i8, i8, i8, i8, i8, [2 x i8], %"class.llvm::SmallVector.184", %"class.std::optional.186", i8, [7 x i8] }>
%"class.clang::Token" = type <{ i32, i32, ptr, i16, i16, [4 x i8] }>
%"class.std::shared_ptr.176" = type { %"class.std::__shared_ptr.177" }
%"class.std::__shared_ptr.177" = type { ptr, %"class.std::__shared_count" }
%"class.clang::SourceRange" = type { %"class.clang::SourceLocation", %"class.clang::SourceLocation" }
%"class.clang::SourceLocation" = type { i32 }
%"class.llvm::SmallVector.179" = type { %"class.llvm::SmallVectorImpl.180", %"struct.llvm::SmallVectorStorage.183" }
%"class.llvm::SmallVectorImpl.180" = type { %"class.llvm::SmallVectorTemplateBase.181" }
%"class.llvm::SmallVectorTemplateBase.181" = type { %"class.llvm::SmallVectorTemplateCommon.182" }
%"class.llvm::SmallVectorTemplateCommon.182" = type { %"class.llvm::SmallVectorBase" }
%"struct.llvm::SmallVectorStorage.183" = type { [16 x i8] }
%"class.llvm::SmallVector.184" = type { %"class.llvm::SmallVectorImpl.39", %"struct.llvm::SmallVectorStorage.185" }
%"struct.llvm::SmallVectorStorage.185" = type { [8 x i8] }
%"class.std::optional.186" = type { %"struct.std::_Optional_base.187" }
%"struct.std::_Optional_base.187" = type { %"struct.std::_Optional_payload.189" }
%"struct.std::_Optional_payload.189" = type { %"struct.std::_Optional_payload.base.195", [7 x i8] }
%"struct.std::_Optional_payload.base.195" = type { %"struct.std::_Optional_payload_base.base.194" }
%"struct.std::_Optional_payload_base.base.194" = type <{ %"union.std::_Optional_payload_base<clang::format::MacroExpansion>::_Storage", i8 }>
%"union.std::_Optional_payload_base<clang::format::MacroExpansion>::_Storage" = type { %"struct.clang::format::MacroExpansion" }
%"struct.clang::format::MacroExpansion" = type { i32, %"class.llvm::SmallVector.192", i32, i32 }
%"class.llvm::SmallVector.192" = type { %"class.llvm::SmallVectorImpl.53", %"struct.llvm::SmallVectorStorage.193" }
%"class.llvm::SmallVectorImpl.53" = type { %"class.llvm::SmallVectorTemplateBase.54" }
%"class.llvm::SmallVectorTemplateBase.54" = type { %"class.llvm::SmallVectorTemplateCommon.55" }
%"class.llvm::SmallVectorTemplateCommon.55" = type { %"class.llvm::SmallVectorBase" }
%"struct.llvm::SmallVectorStorage.193" = type { [8 x i8] }

; Function Attrs: mustprogress nounwind uwtable
define linkonce_odr hidden noundef zeroext i1 @_ZNK5clang6format11FormatToken7isOneOfINS_3tok9TokenKindES4_EEbT_T0_(ptr noundef nonnull align 8 dereferenceable(305) %0, i16 noundef zeroext %1, i16 noundef zeroext %2) #0 comdat align 2 {
  %4 = alloca ptr, align 8
  %5 = alloca i16, align 2
  %6 = alloca i16, align 2
  store ptr %0, ptr %4, align 8
  store i16 %1, ptr %5, align 2
  store i16 %2, ptr %6, align 2
  %7 = load ptr, ptr %4, align 8
  %8 = load i16, ptr %5, align 2
  %9 = call noundef zeroext i1 @_ZNK5clang6format11FormatToken2isENS_3tok9TokenKindE(ptr noundef nonnull align 8 dereferenceable(305) %7, i16 noundef zeroext %8)
  br i1 %9, label %13, label %10

10:                                               ; preds = %3
  %11 = load i16, ptr %6, align 2
  %12 = call noundef zeroext i1 @_ZNK5clang6format11FormatToken2isENS_3tok9TokenKindE(ptr noundef nonnull align 8 dereferenceable(305) %7, i16 noundef zeroext %11)
  br label %13

13:                                               ; preds = %10, %3
  %14 = phi i1 [ true, %3 ], [ %12, %10 ]
  ret i1 %14
}

; Function Attrs: mustprogress nounwind uwtable
define linkonce_odr hidden noundef zeroext i1 @_ZNK5clang5Token2isENS_3tok9TokenKindE(ptr noundef nonnull align 8 dereferenceable(20) %0, i16 noundef zeroext %1) #0 comdat align 2 {
  %3 = alloca ptr, align 8
  %4 = alloca i16, align 2
  store ptr %0, ptr %3, align 8
  store i16 %1, ptr %4, align 2
  %5 = load ptr, ptr %3, align 8
  %6 = getelementptr inbounds nuw %"class.clang::Token", ptr %5, i32 0, i32 3
  %7 = load i16, ptr %6, align 8
  %8 = zext i16 %7 to i32
  %9 = load i16, ptr %4, align 2
  %10 = zext i16 %9 to i32
  %11 = icmp eq i32 %8, %10
  ret i1 %11
}

; Function Attrs: mustprogress nounwind uwtable
define linkonce_odr hidden noundef zeroext i1 @_ZNK5clang6format11FormatToken7isOneOfINS_3tok9TokenKindES4_JS4_EEEbT_T0_DpT1_(ptr noundef nonnull align 8 dereferenceable(305) %0, i16 noundef zeroext %1, i16 noundef zeroext %2, i16 noundef zeroext %3) #0 comdat align 2 {
  %5 = alloca ptr, align 8
  %6 = alloca i16, align 2
  %7 = alloca i16, align 2
  %8 = alloca i16, align 2
  store ptr %0, ptr %5, align 8
  store i16 %1, ptr %6, align 2
  store i16 %2, ptr %7, align 2
  store i16 %3, ptr %8, align 2
  %9 = load ptr, ptr %5, align 8
  %10 = load i16, ptr %6, align 2
  %11 = call noundef zeroext i1 @_ZNK5clang6format11FormatToken2isENS_3tok9TokenKindE(ptr noundef nonnull align 8 dereferenceable(305) %9, i16 noundef zeroext %10)
  br i1 %11, label %16, label %12

12:                                               ; preds = %4
  %13 = load i16, ptr %7, align 2
  %14 = load i16, ptr %8, align 2
  %15 = call noundef zeroext i1 @_ZNK5clang6format11FormatToken7isOneOfINS_3tok9TokenKindES4_EEbT_T0_(ptr noundef nonnull align 8 dereferenceable(305) %9, i16 noundef zeroext %13, i16 noundef zeroext %14)
  br label %16

16:                                               ; preds = %12, %4
  %17 = phi i1 [ true, %4 ], [ %15, %12 ]
  ret i1 %17
}

; Function Attrs: mustprogress nounwind uwtable
define linkonce_odr hidden noundef zeroext i1 @_ZNK5clang6format11FormatToken15isObjCAtKeywordENS_3tok15ObjCKeywordKindE(ptr noundef nonnull align 8 dereferenceable(305) %0, i32 noundef %1) #0 comdat align 2 {
  %3 = alloca ptr, align 8
  %4 = alloca i32, align 4
  store ptr %0, ptr %3, align 8
  store i32 %1, ptr %4, align 4
  %5 = load ptr, ptr %3, align 8
  %6 = getelementptr inbounds nuw %"struct.clang::format::FormatToken", ptr %5, i32 0, i32 0
  %7 = load i32, ptr %4, align 4
  %8 = call noundef zeroext i1 @_ZNK5clang5Token15isObjCAtKeywordENS_3tok15ObjCKeywordKindE(ptr noundef nonnull align 8 dereferenceable(20) %6, i32 noundef %7)
  ret i1 %8
}

; Function Attrs: mustprogress nounwind uwtable
define linkonce_odr hidden noundef zeroext i1 @_ZNK5clang6format11FormatToken2isENS_3tok9TokenKindE(ptr noundef nonnull align 8 dereferenceable(305) %0, i16 noundef zeroext %1) #0 comdat align 2 {
  %3 = alloca ptr, align 8
  %4 = alloca i16, align 2
  store ptr %0, ptr %3, align 8
  store i16 %1, ptr %4, align 2
  %5 = load ptr, ptr %3, align 8
  %6 = getelementptr inbounds nuw %"struct.clang::format::FormatToken", ptr %5, i32 0, i32 0
  %7 = load i16, ptr %4, align 2
  %8 = call noundef zeroext i1 @_ZNK5clang5Token2isENS_3tok9TokenKindE(ptr noundef nonnull align 8 dereferenceable(20) %6, i16 noundef zeroext %7)
  ret i1 %8
}

; Function Attrs: mustprogress nounwind uwtable
define linkonce_odr hidden noundef ptr @_ZNK5clang6format11FormatToken17getNextNonCommentEv(ptr noundef nonnull align 8 dereferenceable(305) %0) #0 comdat align 2 {
  %2 = alloca ptr, align 8
  %3 = alloca ptr, align 8
  store ptr %0, ptr %2, align 8
  %4 = load ptr, ptr %2, align 8
  %5 = getelementptr inbounds nuw %"struct.clang::format::FormatToken", ptr %4, i32 0, i32 35
  %6 = load ptr, ptr %5, align 8
  store ptr %6, ptr %3, align 8
  br label %7

7:                                                ; preds = %15, %1
  %8 = load ptr, ptr %3, align 8
  %9 = icmp ne ptr %8, null
  br i1 %9, label %10, label %13

10:                                               ; preds = %7
  %11 = load ptr, ptr %3, align 8
  %12 = call noundef zeroext i1 @_ZNK5clang6format11FormatToken2isENS_3tok9TokenKindE(ptr noundef nonnull align 8 dereferenceable(305) %11, i16 noundef zeroext 4)
  br label %13

13:                                               ; preds = %10, %7
  %14 = phi i1 [ false, %7 ], [ %12, %10 ]
  br i1 %14, label %15, label %19

15:                                               ; preds = %13
  %16 = load ptr, ptr %3, align 8
  %17 = getelementptr inbounds nuw %"struct.clang::format::FormatToken", ptr %16, i32 0, i32 35
  %18 = load ptr, ptr %17, align 8
  store ptr %18, ptr %3, align 8
  br label %7, !llvm.loop !17

19:                                               ; preds = %13
  %20 = load ptr, ptr %3, align 8
  ret ptr %20
}

; Function Attrs: mustprogress nounwind uwtable
define linkonce_odr hidden noundef zeroext i1 @_ZNK5clang6format11FormatToken24isAccessSpecifierKeywordEv(ptr noundef nonnull align 8 dereferenceable(305) %0) #0 comdat align 2 {
  %2 = alloca ptr, align 8
  store ptr %0, ptr %2, align 8
  %3 = load ptr, ptr %2, align 8
  %4 = call noundef zeroext i1 @_ZNK5clang6format11FormatToken7isOneOfINS_3tok9TokenKindES4_JS4_EEEbT_T0_DpT1_(ptr noundef nonnull align 8 dereferenceable(305) %3, i16 noundef zeroext 142, i16 noundef zeroext 141, i16 noundef zeroext 140)
  ret i1 %4
}

; Function Attrs: mustprogress nounwind uwtable
define linkonce_odr hidden noundef zeroext i1 @_ZNK5clang6format11FormatToken21isObjCAccessSpecifierEv(ptr noundef nonnull align 8 dereferenceable(305) %0) #0 comdat align 2 {
  %2 = alloca ptr, align 8
  store ptr %0, ptr %2, align 8
  %3 = load ptr, ptr %2, align 8
  %4 = call noundef zeroext i1 @_ZNK5clang6format11FormatToken2isENS_3tok9TokenKindE(ptr noundef nonnull align 8 dereferenceable(305) %3, i16 noundef zeroext 73)
  br i1 %4, label %5, label %27

5:                                                ; preds = %1
  %6 = getelementptr inbounds nuw %"struct.clang::format::FormatToken", ptr %3, i32 0, i32 35
  %7 = load ptr, ptr %6, align 8
  %8 = icmp ne ptr %7, null
  br i1 %8, label %9, label %27

9:                                                ; preds = %5
  %10 = getelementptr inbounds nuw %"struct.clang::format::FormatToken", ptr %3, i32 0, i32 35
  %11 = load ptr, ptr %10, align 8
  %12 = call noundef zeroext i1 @_ZNK5clang6format11FormatToken15isObjCAtKeywordENS_3tok15ObjCKeywordKindE(ptr noundef nonnull align 8 dereferenceable(305) %11, i32 noundef 11)
  br i1 %12, label %25, label %13

13:                                               ; preds = %9
  %14 = getelementptr inbounds nuw %"struct.clang::format::FormatToken", ptr %3, i32 0, i32 35
  %15 = load ptr, ptr %14, align 8
  %16 = call noundef zeroext i1 @_ZNK5clang6format11FormatToken15isObjCAtKeywordENS_3tok15ObjCKeywordKindE(ptr noundef nonnull align 8 dereferenceable(305) %15, i32 noundef 9)
  br i1 %16, label %25, label %17

17:                                               ; preds = %13
  %18 = getelementptr inbounds nuw %"struct.clang::format::FormatToken", ptr %3, i32 0, i32 35
  %19 = load ptr, ptr %18, align 8
  %20 = call noundef zeroext i1 @_ZNK5clang6format11FormatToken15isObjCAtKeywordENS_3tok15ObjCKeywordKindE(ptr noundef nonnull align 8 dereferenceable(305) %19, i32 noundef 20)
  br i1 %20, label %25, label %21

21:                                               ; preds = %17
  %22 = getelementptr inbounds nuw %"struct.clang::format::FormatToken", ptr %3, i32 0, i32 35
  %23 = load ptr, ptr %22, align 8
  %24 = call noundef zeroext i1 @_ZNK5clang6format11FormatToken15isObjCAtKeywordENS_3tok15ObjCKeywordKindE(ptr noundef nonnull align 8 dereferenceable(305) %23, i32 noundef 8)
  br label %25

25:                                               ; preds = %21, %17, %13, %9
  %26 = phi i1 [ true, %17 ], [ true, %13 ], [ true, %9 ], [ %24, %21 ]
  br label %27

27:                                               ; preds = %25, %5, %1
  %28 = phi i1 [ false, %5 ], [ false, %1 ], [ %26, %25 ]
  ret i1 %28
}

; Function Attrs: mustprogress nounwind uwtable
define linkonce_odr hidden noundef zeroext i1 @_ZNK5clang6format11FormatToken17isAccessSpecifierEb(ptr noundef nonnull align 8 dereferenceable(305) %0, i1 noundef zeroext %1) #0 comdat align 2 {
  %3 = alloca i1, align 1
  %4 = alloca ptr, align 8
  %5 = alloca i8, align 1
  %6 = alloca ptr, align 8
  store ptr %0, ptr %4, align 8
  %7 = zext i1 %1 to i8
  store i8 %7, ptr %5, align 1
  %8 = load ptr, ptr %4, align 8
  %9 = call noundef zeroext i1 @_ZNK5clang6format11FormatToken24isAccessSpecifierKeywordEv(ptr noundef nonnull align 8 dereferenceable(305) %8)
  br i1 %9, label %11, label %10

10:                                               ; preds = %2
  store i1 false, ptr %3, align 1
  br label %24

11:                                               ; preds = %2
  %12 = load i8, ptr %5, align 1
  %13 = trunc i8 %12 to i1
  br i1 %13, label %15, label %14

14:                                               ; preds = %11
  store i1 true, ptr %3, align 1
  br label %24

15:                                               ; preds = %11
  %16 = call noundef ptr @_ZNK5clang6format11FormatToken17getNextNonCommentEv(ptr noundef nonnull align 8 dereferenceable(305) %8)
  store ptr %16, ptr %6, align 8
  %17 = load ptr, ptr %6, align 8
  %18 = icmp ne ptr %17, null
  br i1 %18, label %19, label %22

19:                                               ; preds = %15
  %20 = load ptr, ptr %6, align 8
  %21 = call noundef zeroext i1 @_ZNK5clang6format11FormatToken2isENS_3tok9TokenKindE(ptr noundef nonnull align 8 dereferenceable(305) %20, i16 noundef zeroext 62)
  br label %22

22:                                               ; preds = %19, %15
  %23 = phi i1 [ false, %15 ], [ %21, %19 ]
  store i1 %23, ptr %3, align 1
  br label %24

24:                                               ; preds = %22, %14, %10
  %25 = load i1, ptr %3, align 1
  ret i1 %25
}

; Function Attrs: mustprogress nounwind uwtable
define internal noundef zeroext i1 @"_ZZN5clang6format24DefinitionBlockSeparator14separateBlocksERN4llvm15SmallVectorImplIPNS0_13AnnotatedLineEEERNS_7tooling12ReplacementsERNS0_16FormatTokenLexerEENK3$_7clEPKNS0_11FormatTokenE"(ptr noundef nonnull align 1 dereferenceable(1) %0, ptr noundef %1) #0 align 2 {
  %3 = alloca ptr, align 8
  %4 = alloca ptr, align 8
  store ptr %0, ptr %3, align 8
  store ptr %1, ptr %4, align 8
  %5 = load ptr, ptr %4, align 8
  %6 = call noundef zeroext i1 @_ZNK5clang6format11FormatToken17isAccessSpecifierEb(ptr noundef nonnull align 8 dereferenceable(305) %5, i1 noundef zeroext true)
  br i1 %6, label %10, label %7

7:                                                ; preds = %2
  %8 = load ptr, ptr %4, align 8
  %9 = call noundef zeroext i1 @_ZNK5clang6format11FormatToken21isObjCAccessSpecifierEv(ptr noundef nonnull align 8 dereferenceable(305) %8)
  br label %10

10:                                               ; preds = %7, %2
  %11 = phi i1 [ true, %2 ], [ %9, %7 ]
  ret i1 %11
}