; Function Attrs: mustprogress nounwind uwtable
define internal fastcc noundef zeroext i1 @"_ZZN5clang6format24DefinitionBlockSeparator14separateBlocksERN4llvm15SmallVectorImplIPNS0_13AnnotatedLineEEERNS_7tooling12ReplacementsERNS0_16FormatTokenLexerEENK3$_7clEPKNS0_11FormatTokenE"(ptr nocapture noundef readonly %0) unnamed_addr #0 align 2 {
  %2 = getelementptr inbounds nuw i8, ptr %0, i64 16
  %3 = load i16, ptr %2, align 8
  switch i16 %3, label %_ZNK5clang6format11FormatToken21isObjCAccessSpecifierEv.exit [
    i16 142, label %.preheader.i.preheader
    i16 141, label %.preheader.i.preheader
    i16 140, label %.preheader.i.preheader
    i16 73, label %8
  ]

.preheader.i.preheader:                           ; preds = %1, %1, %1
  br label %.preheader.i

.preheader.i:                                     ; preds = %.preheader.i.preheader, %4
  %.pn.i.i = phi ptr [ %.0.i.i, %4 ], [ %0, %.preheader.i.preheader ]
  %.0.in.i.i = getelementptr inbounds nuw i8, ptr %.pn.i.i, i64 216
  %.0.i.i = load ptr, ptr %.0.in.i.i, align 8
  %.not.i.i = icmp eq ptr %.0.i.i, null
  br i1 %.not.i.i, label %_ZNK5clang6format11FormatToken17isAccessSpecifierEb.exit.thread, label %4

4:                                                ; preds = %.preheader.i
  %5 = getelementptr inbounds nuw i8, ptr %.0.i.i, i64 16
  %6 = load i16, ptr %5, align 8
  switch i16 %6, label %_ZNK5clang6format11FormatToken17isAccessSpecifierEb.exit.thread [
    i16 4, label %.preheader.i
    i16 62, label %_ZNK5clang6format11FormatToken21isObjCAccessSpecifierEv.exit
  ]

_ZNK5clang6format11FormatToken17isAccessSpecifierEb.exit.thread: ; preds = %4, %.preheader.i
  %7 = icmp eq i16 %3, 73
  br i1 %7, label %8, label %_ZNK5clang6format11FormatToken21isObjCAccessSpecifierEv.exit

8:                                                ; preds = %1, %_ZNK5clang6format11FormatToken17isAccessSpecifierEb.exit.thread
  %9 = getelementptr inbounds nuw i8, ptr %0, i64 216
  %10 = load ptr, ptr %9, align 8
  %.not.i = icmp eq ptr %10, null
  br i1 %.not.i, label %_ZNK5clang6format11FormatToken21isObjCAccessSpecifierEv.exit, label %11

11:                                               ; preds = %8
  %12 = tail call noundef zeroext i1 @_ZNK5clang5Token15isObjCAtKeywordENS_3tok15ObjCKeywordKindE(ptr noundef nonnull align 8 dereferenceable(20) %10, i32 noundef 11) #10
  br i1 %12, label %_ZNK5clang6format11FormatToken21isObjCAccessSpecifierEv.exit, label %13

13:                                               ; preds = %11
  %14 = load ptr, ptr %9, align 8
  %15 = tail call noundef zeroext i1 @_ZNK5clang5Token15isObjCAtKeywordENS_3tok15ObjCKeywordKindE(ptr noundef nonnull align 8 dereferenceable(20) %14, i32 noundef 9) #10
  br i1 %15, label %_ZNK5clang6format11FormatToken21isObjCAccessSpecifierEv.exit, label %16

16:                                               ; preds = %13
  %17 = load ptr, ptr %9, align 8
  %18 = tail call noundef zeroext i1 @_ZNK5clang5Token15isObjCAtKeywordENS_3tok15ObjCKeywordKindE(ptr noundef nonnull align 8 dereferenceable(20) %17, i32 noundef 20) #10
  br i1 %18, label %_ZNK5clang6format11FormatToken21isObjCAccessSpecifierEv.exit, label %19

19:                                               ; preds = %16
  %20 = load ptr, ptr %9, align 8
  %21 = tail call noundef zeroext i1 @_ZNK5clang5Token15isObjCAtKeywordENS_3tok15ObjCKeywordKindE(ptr noundef nonnull align 8 dereferenceable(20) %20, i32 noundef 8) #10
  br label %_ZNK5clang6format11FormatToken21isObjCAccessSpecifierEv.exit

_ZNK5clang6format11FormatToken21isObjCAccessSpecifierEv.exit: ; preds = %4, %1, %19, %16, %13, %11, %8, %_ZNK5clang6format11FormatToken17isAccessSpecifierEb.exit.thread
  %22 = phi i1 [ false, %8 ], [ false, %_ZNK5clang6format11FormatToken17isAccessSpecifierEb.exit.thread ], [ true, %16 ], [ true, %13 ], [ true, %11 ], [ %21, %19 ], [ false, %1 ], [ true, %4 ]
  ret i1 %22
}